target datalayout = "e-m:e-p270:32:32-p271:32:32-p272:64:64-i64:64-i128:128-f80:128-n8:16:32:64-S128"
target triple = "x86_64-pc-linux-gnu"

%struct.expert_field = type { i32, i32 }

@ei_lbmc_analysis_invalid_value = internal global %struct.expert_field zeroinitializer, align 4
@hf_lbmc_unhandled = internal global i32 0, align 4
@hf_lbmc_unhandled_next_hdr = internal global i32 0, align 4
@hf_lbmc_unhandled_hdr_len = internal global i32 0, align 4
@hf_lbmc_unhandled_data = internal global i32 0, align 4
@ett_lbmc_unhandled_hdr = internal global i32 0, align 4
@ei_lbmc_analysis_length_incorrect = internal global %struct.expert_field zeroinitializer, align 4
@.str.1731 = private unnamed_addr constant [32 x i8] c"Invalid LBMC header type 0x%02x\00", align 1

; Function Attrs: null_pointer_is_valid sspstrong uwtable
define internal i32 @dissect_nhdr_unhandled(ptr noundef %0, i32 noundef %1, ptr noundef %2, ptr noundef %3, i8 noundef zeroext %4) #0 {
  %6 = alloca ptr, align 8
  %7 = alloca i32, align 4
  %8 = alloca ptr, align 8
  %9 = alloca ptr, align 8
  %10 = alloca i8, align 1
  %11 = alloca ptr, align 8
  %12 = alloca ptr, align 8
  %13 = alloca i8, align 1
  %14 = alloca i32, align 4
  %15 = alloca i32, align 4
  %16 = alloca ptr, align 8
  store ptr %0, ptr %6, align 8
  store i32 %1, ptr %7, align 4
  store ptr %2, ptr %8, align 8
  store ptr %3, ptr %9, align 8
  store i8 %4, ptr %10, align 1
  call void @llvm.lifetime.start.p0(i64 8, ptr %11) #16
  store ptr null, ptr %11, align 8
  call void @llvm.lifetime.start.p0(i64 8, ptr %12) #16
  store ptr null, ptr %12, align 8
  call void @llvm.lifetime.start.p0(i64 1, ptr %13) #16
  store i8 0, ptr %13, align 1
  call void @llvm.lifetime.start.p0(i64 4, ptr %14) #16
  store i32 0, ptr %14, align 4
  call void @llvm.lifetime.start.p0(i64 4, ptr %15) #16
  store i32 0, ptr %15, align 4
  call void @llvm.lifetime.start.p0(i64 8, ptr %16) #16
  store ptr null, ptr %16, align 8
  %17 = load ptr, ptr %6, align 8
  %18 = load i32, ptr %7, align 4
  %19 = add i32 %18, 1
  %20 = call zeroext i8 @tvb_get_uint8(ptr noundef %17, i32 noundef %19)
  store i8 %20, ptr %13, align 1
  %21 = load ptr, ptr %9, align 8
  %22 = load i32, ptr @hf_lbmc_unhandled, align 4
  %23 = load ptr, ptr %6, align 8
  %24 = load i32, ptr %7, align 4
  %25 = load i8, ptr %13, align 1
  %26 = zext i8 %25 to i32
  %27 = call ptr @proto_tree_add_item(ptr noundef %21, i32 noundef %22, ptr noundef %23, i32 noundef %24, i32 noundef %26, i32 noundef 0)
  store ptr %27, ptr %11, align 8
  %28 = load ptr, ptr %11, align 8
  %29 = load i32, ptr @ett_lbmc_unhandled_hdr, align 4
  %30 = call ptr @proto_item_add_subtree(ptr noundef %28, i32 noundef %29)
  store ptr %30, ptr %12, align 8
  %31 = load ptr, ptr %8, align 8
  %32 = load ptr, ptr %11, align 8
  %33 = load i8, ptr %10, align 1
  %34 = zext i8 %33 to i32
  %35 = call ptr (ptr, ptr, ptr, ptr, ...) @expert_add_info_format(ptr noundef %31, ptr noundef %32, ptr noundef @ei_lbmc_analysis_invalid_value, ptr noundef @.str.1731, i32 noundef %34)
  %36 = load ptr, ptr %12, align 8
  %37 = load i32, ptr @hf_lbmc_unhandled_next_hdr, align 4
  %38 = load ptr, ptr %6, align 8
  %39 = load i32, ptr %7, align 4
  %40 = add i32 %39, 0
  %41 = call ptr @proto_tree_add_item(ptr noundef %36, i32 noundef %37, ptr noundef %38, i32 noundef %40, i32 noundef 1, i32 noundef 0)
  %42 = load ptr, ptr %12, align 8
  %43 = load i32, ptr @hf_lbmc_unhandled_hdr_len, align 4
  %44 = load ptr, ptr %6, align 8
  %45 = load i32, ptr %7, align 4
  %46 = add i32 %45, 1
  %47 = call ptr @proto_tree_add_item(ptr noundef %42, i32 noundef %43, ptr noundef %44, i32 noundef %46, i32 noundef 1, i32 noundef 0)
  store ptr %47, ptr %16, align 8
  store i32 2, ptr %14, align 4
  %48 = load i8, ptr %13, align 1
  %49 = zext i8 %48 to i32
  %50 = load i32, ptr %14, align 4
  %51 = sub i32 %49, %50
  store i32 %51, ptr %15, align 4
  %52 = load i32, ptr %15, align 4
  %53 = icmp sgt i32 %52, 0
  br i1 %53, label %54, label %66

54:                                               ; preds = %5
  %55 = load ptr, ptr %12, align 8
  %56 = load i32, ptr @hf_lbmc_unhandled_data, align 4
  %57 = load ptr, ptr %6, align 8
  %58 = load i32, ptr %7, align 4
  %59 = add i32 %58, 1
  %60 = add i32 %59, 1
  %61 = load i32, ptr %15, align 4
  %62 = call ptr @proto_tree_add_item(ptr noundef %55, i32 noundef %56, ptr noundef %57, i32 noundef %60, i32 noundef %61, i32 noundef 0)
  %63 = load i32, ptr %15, align 4
  %64 = load i32, ptr %14, align 4
  %65 = add i32 %64, %63
  store i32 %65, ptr %14, align 4
  br label %70

66:                                               ; preds = %5
  %67 = load ptr, ptr %8, align 8
  %68 = load ptr, ptr %16, align 8
  %69 = call ptr @expert_add_info(ptr noundef %67, ptr noundef %68, ptr noundef @ei_lbmc_analysis_length_incorrect)
  br label %70

70:                                               ; preds = %66, %54
  %71 = load ptr, ptr %11, align 8
  %72 = load i32, ptr %14, align 4
  call void @proto_item_set_len(ptr noundef %71, i32 noundef %72)
  %73 = load i32, ptr %14, align 4
  call void @llvm.lifetime.end.p0(i64 8, ptr %16) #16
  call void @llvm.lifetime.end.p0(i64 4, ptr %15) #16
  call void @llvm.lifetime.end.p0(i64 4, ptr %14) #16
  call void @llvm.lifetime.end.p0(i64 1, ptr %13) #16
  call void @llvm.lifetime.end.p0(i64 8, ptr %12) #16
  call void @llvm.lifetime.end.p0(i64 8, ptr %11) #16
  ret i32 %73
}