; Function Attrs: null_pointer_is_valid sspstrong uwtable
define internal fastcc range(i32 0, 256) i32 @dissect_nhdr_unhandled(ptr noundef %0, ptr noundef %1, ptr noundef %2, i8 noundef zeroext %3) unnamed_addr #0 {
  %5 = tail call zeroext i8 @tvb_get_uint8(ptr noundef %0, i32 noundef 1)
  %6 = load i32, ptr @hf_lbmc_unhandled, align 4
  %7 = zext i8 %5 to i32
  %8 = tail call ptr @proto_tree_add_item(ptr noundef %2, i32 noundef %6, ptr noundef %0, i32 noundef 0, i32 noundef %7, i32 noundef 0)
  %9 = load i32, ptr @ett_lbmc_unhandled_hdr, align 4
  %10 = tail call ptr @proto_item_add_subtree(ptr noundef %8, i32 noundef %9)
  %11 = zext i8 %3 to i32
  %12 = tail call ptr (ptr, ptr, ptr, ptr, ...) @expert_add_info_format(ptr noundef %1, ptr noundef %8, ptr noundef nonnull @ei_lbmc_analysis_invalid_value, ptr noundef nonnull @.str.1731, i32 noundef %11)
  %13 = load i32, ptr @hf_lbmc_unhandled_next_hdr, align 4
  %14 = tail call ptr @proto_tree_add_item(ptr noundef %10, i32 noundef %13, ptr noundef %0, i32 noundef 0, i32 noundef 1, i32 noundef 0)
  %15 = load i32, ptr @hf_lbmc_unhandled_hdr_len, align 4
  %16 = tail call ptr @proto_tree_add_item(ptr noundef %10, i32 noundef %15, ptr noundef %0, i32 noundef 1, i32 noundef 1, i32 noundef 0)
  %17 = icmp ugt i8 %5, 2
  br i1 %17, label %18, label %22

18:                                               ; preds = %4
  %19 = add nsw i32 %7, -2
  %20 = load i32, ptr @hf_lbmc_unhandled_data, align 4
  %21 = tail call ptr @proto_tree_add_item(ptr noundef %10, i32 noundef %20, ptr noundef %0, i32 noundef 2, i32 noundef %19, i32 noundef 0)
  br label %24

22:                                               ; preds = %4
  %23 = tail call ptr @expert_add_info(ptr noundef %1, ptr noundef %16, ptr noundef nonnull @ei_lbmc_analysis_length_incorrect)
  br label %24

24:                                               ; preds = %22, %18
  %.0 = phi i32 [ %7, %18 ], [ 2, %22 ]
  tail call void @proto_item_set_len(ptr noundef %8, i32 noundef %.0)
  ret i32 %.0
}